target datalayout = "e-m:e-p270:32:32-p271:32:32-p272:64:64-i64:64-i128:128-f80:128-n8:16:32:64-S128"
target triple = "x86_64-pc-linux-gnu"

%struct.ident_t = type { i32, i32, i32, i32, ptr }
%"struct.faiss::Top1BlockResultHandler.15" = type { %"struct.faiss::BlockResultHandler.16", ptr, ptr }
%"struct.faiss::BlockResultHandler.16" = type { ptr, i64, i64, i64 }
%"struct.faiss::Top1BlockResultHandler<faiss::CMax<float, long>>::SingleResultHandler" = type { %"struct.faiss::ResultHandler.base.25", ptr, i64, i64 }
%"struct.faiss::ResultHandler.base.25" = type <{ ptr, float }>
%"struct.faiss::ResultHandler.24" = type <{ ptr, float, [4 x i8] }>

@1 = private unnamed_addr constant %struct.ident_t { i32 0, i32 514, i32 0, i32 22, ptr @0 }, align 8
@3 = private unnamed_addr constant %struct.ident_t { i32 0, i32 66, i32 0, i32 22, ptr @0 }, align 8

; Function Attrs: mustprogress nounwind uwtable
define linkonce_odr noundef float @_ZNSt14numeric_limitsIfE3maxEv() #0 comdat align 2 {
  ret float 0x47EFFFFFE0000000
}

; Function Attrs: mustprogress nounwind uwtable
define linkonce_odr void @_ZN5faiss13ResultHandlerINS_4CMaxIflEEED2Ev(ptr noundef nonnull align 8 dereferenceable(12) %0) unnamed_addr #0 comdat align 2 {
  %2 = alloca ptr, align 8
  store ptr %0, ptr %2, align 8
  ret void
}

; Function Attrs: mustprogress nounwind uwtable
define linkonce_odr noundef zeroext i1 @_ZN5faiss4CMaxIflE3cmpEff(float noundef %0, float noundef %1) #0 comdat align 2 {
  %3 = alloca float, align 4
  %4 = alloca float, align 4
  store float %0, ptr %3, align 4
  store float %1, ptr %4, align 4
  %5 = load float, ptr %3, align 4
  %6 = load float, ptr %4, align 4
  %7 = fcmp ogt float %5, %6
  ret i1 %7
}

; Function Attrs: mustprogress nounwind uwtable
define linkonce_odr noundef float @_ZN5faiss4CMaxIflE7neutralEv() #0 comdat align 2 {
  %1 = call noundef float @_ZNSt14numeric_limitsIfE3maxEv() #2
  ret float %1
}

; Function Attrs: mustprogress nounwind uwtable
define linkonce_odr void @_ZN5faiss13ResultHandlerINS_4CMaxIflEEEC2Ev(ptr noundef nonnull align 8 dereferenceable(12) %0) unnamed_addr #0 comdat align 2 {
  %2 = alloca ptr, align 8
  store ptr %0, ptr %2, align 8
  %3 = load ptr, ptr %2, align 8
  store ptr getelementptr inbounds ({ [5 x ptr] }, ptr @_ZTVN5faiss13ResultHandlerINS_4CMaxIflEEEE, i32 0, i32 0, i32 2), ptr %3, align 8
  %4 = getelementptr inbounds %"struct.faiss::ResultHandler.24", ptr %3, i32 0, i32 1
  store float 0.000000e+00, ptr %4, align 8
  ret void
}

; Function Attrs: mustprogress nounwind uwtable
define linkonce_odr void @_ZN5faiss22Top1BlockResultHandlerINS_4CMaxIflEEE19SingleResultHandlerD2Ev(ptr noundef nonnull align 8 dereferenceable(40) %0) unnamed_addr #0 comdat align 2 {
  %2 = alloca ptr, align 8
  store ptr %0, ptr %2, align 8
  %3 = load ptr, ptr %2, align 8
  call void @_ZN5faiss13ResultHandlerINS_4CMaxIflEEED2Ev(ptr noundef nonnull align 8 dereferenceable(12) %3) #2
  ret void
}

; Function Attrs: mustprogress nounwind uwtable
define linkonce_odr void @_ZN5faiss22Top1BlockResultHandlerINS_4CMaxIflEEE19SingleResultHandler3endEv(ptr noundef nonnull align 8 dereferenceable(40) %0) #0 comdat align 2 {
  %2 = alloca ptr, align 8
  store ptr %0, ptr %2, align 8
  %3 = load ptr, ptr %2, align 8
  %4 = getelementptr inbounds %"struct.faiss::ResultHandler.24", ptr %3, i32 0, i32 1
  %5 = load float, ptr %4, align 8
  %6 = getelementptr inbounds %"struct.faiss::Top1BlockResultHandler<faiss::CMax<float, long>>::SingleResultHandler", ptr %3, i32 0, i32 1
  %7 = load ptr, ptr %6, align 8
  %8 = getelementptr inbounds %"struct.faiss::Top1BlockResultHandler.15", ptr %7, i32 0, i32 1
  %9 = load ptr, ptr %8, align 8
  %10 = getelementptr inbounds %"struct.faiss::Top1BlockResultHandler<faiss::CMax<float, long>>::SingleResultHandler", ptr %3, i32 0, i32 3
  %11 = load i64, ptr %10, align 8
  %12 = getelementptr inbounds float, ptr %9, i64 %11
  store float %5, ptr %12, align 4
  %13 = getelementptr inbounds %"struct.faiss::Top1BlockResultHandler<faiss::CMax<float, long>>::SingleResultHandler", ptr %3, i32 0, i32 2
  %14 = load i64, ptr %13, align 8
  %15 = getelementptr inbounds %"struct.faiss::Top1BlockResultHandler<faiss::CMax<float, long>>::SingleResultHandler", ptr %3, i32 0, i32 1
  %16 = load ptr, ptr %15, align 8
  %17 = getelementptr inbounds %"struct.faiss::Top1BlockResultHandler.15", ptr %16, i32 0, i32 2
  %18 = load ptr, ptr %17, align 8
  %19 = getelementptr inbounds %"struct.faiss::Top1BlockResultHandler<faiss::CMax<float, long>>::SingleResultHandler", ptr %3, i32 0, i32 3
  %20 = load i64, ptr %19, align 8
  %21 = getelementptr inbounds i64, ptr %18, i64 %20
  store i64 %14, ptr %21, align 8
  ret void
}

; Function Attrs: mustprogress nounwind uwtable
define linkonce_odr noundef zeroext i1 @_ZN5faiss22Top1BlockResultHandlerINS_4CMaxIflEEE19SingleResultHandler10add_resultEfl(ptr noundef nonnull align 8 dereferenceable(40) %0, float noundef %1, i64 noundef %2) unnamed_addr #0 comdat align 2 {
  %4 = alloca i1, align 1
  %5 = alloca ptr, align 8
  %6 = alloca float, align 4
  %7 = alloca i64, align 8
  store ptr %0, ptr %5, align 8
  store float %1, ptr %6, align 4
  store i64 %2, ptr %7, align 8
  %8 = load ptr, ptr %5, align 8
  %9 = getelementptr inbounds %"struct.faiss::ResultHandler.24", ptr %8, i32 0, i32 1
  %10 = load float, ptr %9, align 8
  %11 = load float, ptr %6, align 4
  %12 = call noundef zeroext i1 @_ZN5faiss4CMaxIflE3cmpEff(float noundef %10, float noundef %11)
  br i1 %12, label %13, label %18

13:                                               ; preds = %3
  %14 = load float, ptr %6, align 4
  %15 = getelementptr inbounds %"struct.faiss::ResultHandler.24", ptr %8, i32 0, i32 1
  store float %14, ptr %15, align 8
  %16 = load i64, ptr %7, align 8
  %17 = getelementptr inbounds %"struct.faiss::Top1BlockResultHandler<faiss::CMax<float, long>>::SingleResultHandler", ptr %8, i32 0, i32 2
  store i64 %16, ptr %17, align 8
  store i1 true, ptr %4, align 1
  br label %19

18:                                               ; preds = %3
  store i1 false, ptr %4, align 1
  br label %19

19:                                               ; preds = %18, %13
  %20 = load i1, ptr %4, align 1
  ret i1 %20
}

; Function Attrs: mustprogress nounwind uwtable
define linkonce_odr void @_ZN5faiss22Top1BlockResultHandlerINS_4CMaxIflEEE19SingleResultHandler5beginEm(ptr noundef nonnull align 8 dereferenceable(40) %0, i64 noundef %1) #0 comdat align 2 {
  %3 = alloca ptr, align 8
  %4 = alloca i64, align 8
  store ptr %0, ptr %3, align 8
  store i64 %1, ptr %4, align 8
  %5 = load ptr, ptr %3, align 8
  %6 = load i64, ptr %4, align 8
  %7 = getelementptr inbounds %"struct.faiss::Top1BlockResultHandler<faiss::CMax<float, long>>::SingleResultHandler", ptr %5, i32 0, i32 3
  store i64 %6, ptr %7, align 8
  %8 = call noundef float @_ZN5faiss4CMaxIflE7neutralEv()
  %9 = getelementptr inbounds %"struct.faiss::ResultHandler.24", ptr %5, i32 0, i32 1
  store float %8, ptr %9, align 8
  %10 = getelementptr inbounds %"struct.faiss::Top1BlockResultHandler<faiss::CMax<float, long>>::SingleResultHandler", ptr %5, i32 0, i32 2
  store i64 -1, ptr %10, align 8
  ret void
}

; Function Attrs: mustprogress nounwind uwtable
define linkonce_odr void @_ZN5faiss22Top1BlockResultHandlerINS_4CMaxIflEEE19SingleResultHandlerC2ERS3_(ptr noundef nonnull align 8 dereferenceable(40) %0, ptr noundef nonnull align 8 dereferenceable(48) %1) unnamed_addr #0 comdat align 2 {
  %3 = alloca ptr, align 8
  %4 = alloca ptr, align 8
  store ptr %0, ptr %3, align 8
  store ptr %1, ptr %4, align 8
  %5 = load ptr, ptr %3, align 8
  call void @_ZN5faiss13ResultHandlerINS_4CMaxIflEEEC2Ev(ptr noundef nonnull align 8 dereferenceable(12) %5) #2
  store ptr getelementptr inbounds ({ [5 x ptr] }, ptr @_ZTVN5faiss22Top1BlockResultHandlerINS_4CMaxIflEEE19SingleResultHandlerE, i32 0, i32 0, i32 2), ptr %5, align 8
  %6 = getelementptr inbounds %"struct.faiss::Top1BlockResultHandler<faiss::CMax<float, long>>::SingleResultHandler", ptr %5, i32 0, i32 1
  %7 = load ptr, ptr %4, align 8
  store ptr %7, ptr %6, align 8
  %8 = getelementptr inbounds %"struct.faiss::Top1BlockResultHandler<faiss::CMax<float, long>>::SingleResultHandler", ptr %5, i32 0, i32 3
  store i64 0, ptr %8, align 8
  ret void
}

; Function Attrs: norecurse nounwind uwtable
define internal void @_ZN5faiss12_GLOBAL__N_120exhaustive_L2sqr_seqINS_22Top1BlockResultHandlerINS_4CMaxIflEEEELb0EEEvPKfS7_mmmRT_PKNS_10IDSelectorE.omp_outlined(ptr noalias noundef %0, ptr noalias noundef %1, ptr noundef nonnull align 8 dereferenceable(48) %2, ptr noundef nonnull align 8 dereferenceable(8) %3, ptr noundef nonnull align 8 dereferenceable(8) %4, ptr noundef nonnull align 8 dereferenceable(8) %5, ptr noundef nonnull align 8 dereferenceable(8) %6, ptr noundef nonnull align 8 dereferenceable(8) %7, ptr noundef nonnull align 8 dereferenceable(8) %8) #1 personality ptr @__gxx_personality_v0 {
  %10 = alloca ptr, align 8
  %11 = alloca ptr, align 8
  %12 = alloca ptr, align 8
  %13 = alloca ptr, align 8
  %14 = alloca ptr, align 8
  %15 = alloca ptr, align 8
  %16 = alloca ptr, align 8
  %17 = alloca ptr, align 8
  %18 = alloca ptr, align 8
  %19 = alloca ptr, align 8
  %20 = alloca %"struct.faiss::Top1BlockResultHandler<faiss::CMax<float, long>>::SingleResultHandler", align 8
  %21 = alloca i64, align 8
  %22 = alloca i64, align 8
  %23 = alloca i64, align 8
  %24 = alloca i64, align 8
  %25 = alloca i64, align 8
  %26 = alloca i64, align 8
  %27 = alloca i64, align 8
  %28 = alloca i32, align 4
  %29 = alloca i64, align 8
  %30 = alloca ptr, align 8
  %31 = alloca ptr, align 8
  %32 = alloca i64, align 8
  %33 = alloca float, align 4
  store ptr %0, ptr %10, align 8
  store ptr %1, ptr %11, align 8
  store ptr %2, ptr %12, align 8
  store ptr %3, ptr %13, align 8
  store ptr %4, ptr %14, align 8
  store ptr %5, ptr %15, align 8
  store ptr %6, ptr %16, align 8
  store ptr %7, ptr %17, align 8
  store ptr %8, ptr %18, align 8
  %34 = load ptr, ptr %12, align 8
  %35 = load ptr, ptr %13, align 8
  %36 = load ptr, ptr %14, align 8
  %37 = load ptr, ptr %15, align 8
  %38 = load ptr, ptr %16, align 8
  %39 = load ptr, ptr %17, align 8
  store ptr %34, ptr %19, align 8
  %40 = load ptr, ptr %19, align 8
  invoke void @_ZN5faiss22Top1BlockResultHandlerINS_4CMaxIflEEE19SingleResultHandlerC2ERS3_(ptr noundef nonnull align 8 dereferenceable(40) %20, ptr noundef nonnull align 8 dereferenceable(48) %40)
          to label %41 unwind label %110

41:                                               ; preds = %9
  %42 = load i64, ptr %35, align 8
  store i64 %42, ptr %22, align 8
  %43 = load i64, ptr %22, align 8
  %44 = sub i64 %43, 0
  %45 = udiv i64 %44, 1
  %46 = sub i64 %45, 1
  store i64 %46, ptr %23, align 8
  store i64 0, ptr %24, align 8
  %47 = load i64, ptr %22, align 8
  %48 = icmp ult i64 0, %47
  br i1 %48, label %49, label %107

49:                                               ; preds = %41
  store i64 0, ptr %25, align 8
  %50 = load i64, ptr %23, align 8
  store i64 %50, ptr %26, align 8
  store i64 1, ptr %27, align 8
  store i32 0, ptr %28, align 4
  %51 = load ptr, ptr %10, align 8
  %52 = load i32, ptr %51, align 4
  call void @__kmpc_for_static_init_8u(ptr @1, i32 %52, i32 34, ptr %28, ptr %25, ptr %26, ptr %27, i64 1, i64 1)
  %53 = load i64, ptr %26, align 8
  %54 = load i64, ptr %23, align 8
  %55 = icmp ugt i64 %53, %54
  br i1 %55, label %56, label %58

56:                                               ; preds = %49
  %57 = load i64, ptr %23, align 8
  br label %60

58:                                               ; preds = %49
  %59 = load i64, ptr %26, align 8
  br label %60

60:                                               ; preds = %58, %56
  %61 = phi i64 [ %57, %56 ], [ %59, %58 ]
  store i64 %61, ptr %26, align 8
  %62 = load i64, ptr %25, align 8
  store i64 %62, ptr %21, align 8
  br label %63

63:                                               ; preds = %100, %60
  %64 = load i64, ptr %21, align 8
  %65 = load i64, ptr %26, align 8
  %66 = add i64 %65, 1
  %67 = icmp ult i64 %64, %66
  br i1 %67, label %68, label %103

68:                                               ; preds = %63
  %69 = load i64, ptr %21, align 8
  %70 = mul i64 %69, 1
  %71 = add i64 0, %70
  store i64 %71, ptr %29, align 8
  %72 = load ptr, ptr %36, align 8
  %73 = load i64, ptr %29, align 8
  %74 = load i64, ptr %37, align 8
  %75 = mul i64 %73, %74
  %76 = getelementptr inbounds float, ptr %72, i64 %75
  store ptr %76, ptr %30, align 8
  %77 = load ptr, ptr %38, align 8
  store ptr %77, ptr %31, align 8
  %78 = load i64, ptr %29, align 8
  call void @_ZN5faiss22Top1BlockResultHandlerINS_4CMaxIflEEE19SingleResultHandler5beginEm(ptr noundef nonnull align 8 dereferenceable(40) %20, i64 noundef %78)
  store i64 0, ptr %32, align 8
  br label %79

79:                                               ; preds = %92, %68
  %80 = load i64, ptr %32, align 8
  %81 = load i64, ptr %39, align 8
  %82 = icmp ult i64 %80, %81
  br i1 %82, label %83, label %98

83:                                               ; preds = %79
  %84 = load ptr, ptr %30, align 8
  %85 = load ptr, ptr %31, align 8
  %86 = load i64, ptr %37, align 8
  %87 = invoke noundef float @_ZN5faiss10fvec_L2sqrEPKfS1_m(ptr noundef %84, ptr noundef %85, i64 noundef %86)
          to label %88 unwind label %110

88:                                               ; preds = %83
  store float %87, ptr %33, align 4
  %89 = load float, ptr %33, align 4
  %90 = load i64, ptr %32, align 8
  %91 = call noundef zeroext i1 @_ZN5faiss22Top1BlockResultHandlerINS_4CMaxIflEEE19SingleResultHandler10add_resultEfl(ptr noundef nonnull align 8 dereferenceable(40) %20, float noundef %89, i64 noundef %90)
  br label %92

92:                                               ; preds = %88
  %93 = load i64, ptr %32, align 8
  %94 = add i64 %93, 1
  store i64 %94, ptr %32, align 8
  %95 = load i64, ptr %37, align 8
  %96 = load ptr, ptr %31, align 8
  %97 = getelementptr inbounds float, ptr %96, i64 %95
  store ptr %97, ptr %31, align 8
  br label %79, !llvm.loop !53

98:                                               ; preds = %79
  call void @_ZN5faiss22Top1BlockResultHandlerINS_4CMaxIflEEE19SingleResultHandler3endEv(ptr noundef nonnull align 8 dereferenceable(40) %20)
  br label %99

99:                                               ; preds = %98
  br label %100

100:                                              ; preds = %99
  %101 = load i64, ptr %21, align 8
  %102 = add i64 %101, 1
  store i64 %102, ptr %21, align 8
  br label %63

103:                                              ; preds = %63
  br label %104

104:                                              ; preds = %103
  %105 = load ptr, ptr %10, align 8
  %106 = load i32, ptr %105, align 4
  call void @__kmpc_for_static_fini(ptr @1, i32 %106)
  br label %107

107:                                              ; preds = %104, %41
  %108 = load ptr, ptr %10, align 8
  %109 = load i32, ptr %108, align 4
  call void @__kmpc_barrier(ptr @3, i32 %109)
  call void @_ZN5faiss22Top1BlockResultHandlerINS_4CMaxIflEEE19SingleResultHandlerD2Ev(ptr noundef nonnull align 8 dereferenceable(40) %20) #2
  ret void

110:                                              ; preds = %83, %9
  %111 = landingpad { ptr, i32 }
          catch ptr null
  %112 = extractvalue { ptr, i32 } %111, 0
  call void @__clang_call_terminate(ptr %112) #17
  unreachable
}